target datalayout = "e-m:e-p270:32:32-p271:32:32-p272:64:64-i64:64-i128:128-f80:128-n8:16:32:64-S128"
target triple = "x86_64-pc-linux-gnu"

@ett_cell_list = internal global i32 0, align 4
@ett_bssmap_msg = internal global i32 0, align 4
@ett_dlci = internal global i32 0, align 4
@ett_codec_lst = internal global i32 0, align 4
@ett_bss_to_bss_info = internal global i32 0, align 4
@ett_gsm_bssmap_msg = internal global [122 x i32] zeroinitializer, align 16
@ett_gsm_bssmap_elem = hidden global [243 x i32] zeroinitializer, align 16
@.str.512 = private unnamed_addr constant [17 x i8] c"GSM A-I/F BSSMAP\00", align 1
@.str.513 = private unnamed_addr constant [11 x i8] c"GSM BSSMAP\00", align 1
@.str.514 = private unnamed_addr constant [13 x i8] c"gsm_a.bssmap\00", align 1
@proto_a_bssmap = internal global i32 0, align 4
@.str.515 = private unnamed_addr constant [13 x i8] c"gsm_a_bssmap\00", align 1
@bssmap_handle = internal global ptr null, align 8

; Function Attrs: null_pointer_is_valid sspstrong uwtable
define hidden void @proto_register_gsm_a_bssmap() #1 {
  %1 = alloca i32, align 4
  %2 = alloca i32, align 4
  %3 = alloca ptr, align 8
  %4 = alloca [370 x ptr], align 16
  call void @llvm.lifetime.start.p0(i64 4, ptr %1) #5
  call void @llvm.lifetime.start.p0(i64 4, ptr %2) #5
  call void @llvm.lifetime.start.p0(i64 8, ptr %3) #5
  call void @llvm.lifetime.start.p0(i64 2960, ptr %4) #5
  %5 = getelementptr [370 x ptr], ptr %4, i64 0, i64 0
  store ptr @ett_bssmap_msg, ptr %5, align 16
  %6 = getelementptr [370 x ptr], ptr %4, i64 0, i64 1
  store ptr @ett_cell_list, ptr %6, align 8
  %7 = getelementptr [370 x ptr], ptr %4, i64 0, i64 2
  store ptr @ett_dlci, ptr %7, align 16
  %8 = getelementptr [370 x ptr], ptr %4, i64 0, i64 3
  store ptr @ett_codec_lst, ptr %8, align 8
  %9 = getelementptr [370 x ptr], ptr %4, i64 0, i64 4
  store ptr @ett_bss_to_bss_info, ptr %9, align 16
  store i32 5, ptr %2, align 4
  store i32 0, ptr %1, align 4
  br label %10

10:                                               ; preds = %20, %0
  %11 = load i32, ptr %1, align 4
  %12 = icmp ult i32 %11, 122
  br i1 %12, label %13, label %25

13:                                               ; preds = %10
  %14 = load i32, ptr %1, align 4
  %15 = zext i32 %14 to i64
  %16 = getelementptr [122 x i32], ptr @ett_gsm_bssmap_msg, i64 0, i64 %15
  %17 = load i32, ptr %2, align 4
  %18 = zext i32 %17 to i64
  %19 = getelementptr [370 x ptr], ptr %4, i64 0, i64 %18
  store ptr %16, ptr %19, align 8
  br label %20

20:                                               ; preds = %13
  %21 = load i32, ptr %1, align 4
  %22 = add i32 %21, 1
  store i32 %22, ptr %1, align 4
  %23 = load i32, ptr %2, align 4
  %24 = add i32 %23, 1
  store i32 %24, ptr %2, align 4
  br label %10, !llvm.loop !19

25:                                               ; preds = %10
  store i32 0, ptr %1, align 4
  br label %26

26:                                               ; preds = %37, %25
  %27 = load i32, ptr %1, align 4
  %28 = zext i32 %27 to i64
  %29 = icmp ult i64 %28, 243
  br i1 %29, label %30, label %42

30:                                               ; preds = %26
  %31 = load i32, ptr %1, align 4
  %32 = zext i32 %31 to i64
  %33 = getelementptr [243 x i32], ptr @ett_gsm_bssmap_elem, i64 0, i64 %32
  %34 = load i32, ptr %2, align 4
  %35 = zext i32 %34 to i64
  %36 = getelementptr [370 x ptr], ptr %4, i64 0, i64 %35
  store ptr %33, ptr %36, align 8
  br label %37

37:                                               ; preds = %30
  %38 = load i32, ptr %1, align 4
  %39 = add i32 %38, 1
  store i32 %39, ptr %1, align 4
  %40 = load i32, ptr %2, align 4
  %41 = add i32 %40, 1
  store i32 %41, ptr %2, align 4
  br label %26, !llvm.loop !20

42:                                               ; preds = %26
  %43 = call i32 @proto_register_protocol(ptr noundef @.str.512, ptr noundef @.str.513, ptr noundef @.str.514)
  store i32 %43, ptr @proto_a_bssmap, align 4
  %44 = load i32, ptr @proto_a_bssmap, align 4
  call void @proto_register_field_array(i32 noundef %44, ptr noundef @proto_register_gsm_a_bssmap.hf, i32 noundef 190)
  %45 = getelementptr inbounds [370 x ptr], ptr %4, i64 0, i64 0
  call void @proto_register_subtree_array(ptr noundef %45, i32 noundef 370)
  %46 = load i32, ptr @proto_a_bssmap, align 4
  %47 = call ptr @expert_register_protocol(i32 noundef %46)
  store ptr %47, ptr %3, align 8
  %48 = load ptr, ptr %3, align 8
  call void @expert_register_field_array(ptr noundef %48, ptr noundef @proto_register_gsm_a_bssmap.ei, i32 noundef 5)
  %49 = load i32, ptr @proto_a_bssmap, align 4
  %50 = call ptr @register_dissector(ptr noundef @.str.515, ptr noundef @dissect_bssmap, i32 noundef %49)
  store ptr %50, ptr @bssmap_handle, align 8
  call void @llvm.lifetime.end.p0(i64 2960, ptr %4) #5
  call void @llvm.lifetime.end.p0(i64 8, ptr %3) #5
  call void @llvm.lifetime.end.p0(i64 4, ptr %2) #5
  call void @llvm.lifetime.end.p0(i64 4, ptr %1) #5
  ret void
}