; Function Attrs: null_pointer_is_valid sspstrong uwtable
define hidden void @proto_register_gsm_a_bssmap() local_unnamed_addr #1 {
  %1 = alloca [370 x ptr], align 16
  call void @llvm.lifetime.start.p0(i64 2960, ptr nonnull %1) #4
  store ptr @ett_bssmap_msg, ptr %1, align 16
  %2 = getelementptr inbounds nuw i8, ptr %1, i64 8
  store ptr @ett_cell_list, ptr %2, align 8
  %3 = getelementptr inbounds nuw i8, ptr %1, i64 16
  store ptr @ett_dlci, ptr %3, align 16
  %4 = getelementptr inbounds nuw i8, ptr %1, i64 24
  store ptr @ett_codec_lst, ptr %4, align 8
  %5 = getelementptr inbounds nuw i8, ptr %1, i64 32
  store ptr @ett_bss_to_bss_info, ptr %5, align 16
  br label %6

6:                                                ; preds = %0, %6
  %indvars.iv17 = phi i64 [ 5, %0 ], [ %indvars.iv.next18, %6 ]
  %indvars.iv = phi i64 [ 0, %0 ], [ %indvars.iv.next, %6 ]
  %7 = getelementptr [122 x i32], ptr @ett_gsm_bssmap_msg, i64 0, i64 %indvars.iv
  %8 = getelementptr [370 x ptr], ptr %1, i64 0, i64 %indvars.iv17
  store ptr %7, ptr %8, align 8
  %indvars.iv.next = add nuw nsw i64 %indvars.iv, 1
  %indvars.iv.next18 = add nuw nsw i64 %indvars.iv17, 1
  %exitcond.not = icmp eq i64 %indvars.iv.next, 122
  br i1 %exitcond.not, label %.preheader, label %6, !llvm.loop !17

.preheader:                                       ; preds = %6, %.preheader
  %indvars.iv24 = phi i64 [ %indvars.iv.next25, %.preheader ], [ 127, %6 ]
  %indvars.iv22 = phi i64 [ %indvars.iv.next23, %.preheader ], [ 0, %6 ]
  %9 = getelementptr [243 x i32], ptr @ett_gsm_bssmap_elem, i64 0, i64 %indvars.iv22
  %10 = getelementptr [370 x ptr], ptr %1, i64 0, i64 %indvars.iv24
  store ptr %9, ptr %10, align 8
  %indvars.iv.next23 = add nuw nsw i64 %indvars.iv22, 1
  %indvars.iv.next25 = add nuw nsw i64 %indvars.iv24, 1
  %exitcond29.not = icmp eq i64 %indvars.iv.next23, 243
  br i1 %exitcond29.not, label %11, label %.preheader, !llvm.loop !18

11:                                               ; preds = %.preheader
  %12 = tail call i32 @proto_register_protocol(ptr noundef nonnull @.str.512, ptr noundef nonnull @.str.513, ptr noundef nonnull @.str.514)
  store i32 %12, ptr @proto_a_bssmap, align 4
  tail call void @proto_register_field_array(i32 noundef %12, ptr noundef nonnull @proto_register_gsm_a_bssmap.hf, i32 noundef 190)
  call void @proto_register_subtree_array(ptr noundef nonnull %1, i32 noundef 370)
  %13 = load i32, ptr @proto_a_bssmap, align 4
  %14 = call ptr @expert_register_protocol(i32 noundef %13)
  call void @expert_register_field_array(ptr noundef %14, ptr noundef nonnull @proto_register_gsm_a_bssmap.ei, i32 noundef 5)
  %15 = load i32, ptr @proto_a_bssmap, align 4
  %16 = call ptr @register_dissector(ptr noundef nonnull @.str.515, ptr noundef nonnull @dissect_bssmap, i32 noundef %15)
  store ptr %16, ptr @bssmap_handle, align 8
  call void @llvm.lifetime.end.p0(i64 2960, ptr nonnull %1) #4
  ret void
}